target datalayout = "e-m:e-p270:32:32-p271:32:32-p272:64:64-i64:64-i128:128-f80:128-n8:16:32:64-S128"
target triple = "x86_64-pc-linux-gnu"

%struct.FuncState = type { ptr, ptr, ptr, ptr, ptr, ptr, i32, i32, i32, i32, i32, i32, i16, i8, [60 x %struct.upvaldesc], [200 x i16] }
%struct.upvaldesc = type { i8, i8 }
%struct.Proto = type { ptr, i8, i8, ptr, ptr, ptr, ptr, ptr, ptr, ptr, i32, i32, i32, i32, i32, i32, i32, i32, ptr, i8, i8, i8, i8 }

@.str = private unnamed_addr constant [35 x i8] c"function or expression too complex\00", align 1

; Function Attrs: nounwind uwtable
define hidden void @luaK_checkstack(ptr noundef %0, i32 noundef %1) #0 {
  %3 = alloca ptr, align 8
  %4 = alloca i32, align 4
  %5 = alloca i32, align 4
  store ptr %0, ptr %3, align 8, !tbaa !4
  store i32 %1, ptr %4, align 4, !tbaa !9
  call void @llvm.lifetime.start.p0(i64 4, ptr %5) #6
  %6 = load ptr, ptr %3, align 8, !tbaa !4
  %7 = getelementptr inbounds nuw %struct.FuncState, ptr %6, i32 0, i32 9
  %8 = load i32, ptr %7, align 4, !tbaa !42
  %9 = load i32, ptr %4, align 4, !tbaa !9
  %10 = add nsw i32 %8, %9
  store i32 %10, ptr %5, align 4, !tbaa !9
  %11 = load i32, ptr %5, align 4, !tbaa !9
  %12 = load ptr, ptr %3, align 8, !tbaa !4
  %13 = getelementptr inbounds nuw %struct.FuncState, ptr %12, i32 0, i32 0
  %14 = load ptr, ptr %13, align 8, !tbaa !21
  %15 = getelementptr inbounds nuw %struct.Proto, ptr %14, i32 0, i32 22
  %16 = load i8, ptr %15, align 1, !tbaa !43
  %17 = zext i8 %16 to i32
  %18 = icmp sgt i32 %11, %17
  br i1 %18, label %19, label %33

19:                                               ; preds = %2
  %20 = load i32, ptr %5, align 4, !tbaa !9
  %21 = icmp sge i32 %20, 250
  br i1 %21, label %22, label %26

22:                                               ; preds = %19
  %23 = load ptr, ptr %3, align 8, !tbaa !4
  %24 = getelementptr inbounds nuw %struct.FuncState, ptr %23, i32 0, i32 3
  %25 = load ptr, ptr %24, align 8, !tbaa !32
  call void @luaX_syntaxerror(ptr noundef %25, ptr noundef @.str)
  br label %26

26:                                               ; preds = %22, %19
  %27 = load i32, ptr %5, align 4, !tbaa !9
  %28 = trunc i32 %27 to i8
  %29 = load ptr, ptr %3, align 8, !tbaa !4
  %30 = getelementptr inbounds nuw %struct.FuncState, ptr %29, i32 0, i32 0
  %31 = load ptr, ptr %30, align 8, !tbaa !21
  %32 = getelementptr inbounds nuw %struct.Proto, ptr %31, i32 0, i32 22
  store i8 %28, ptr %32, align 1, !tbaa !43
  br label %33

33:                                               ; preds = %26, %2
  call void @llvm.lifetime.end.p0(i64 4, ptr %5) #6
  ret void
}