; Function Attrs: nounwind uwtable
define hidden void @luaK_checkstack(ptr noundef readonly captures(none) %0, i32 noundef %1) local_unnamed_addr #0 {
  %3 = getelementptr inbounds nuw i8, ptr %0, i64 60
  %4 = load i32, ptr %3, align 4, !tbaa !41
  %5 = add nsw i32 %4, %1
  %6 = load ptr, ptr %0, align 8, !tbaa !19
  %7 = getelementptr inbounds nuw i8, ptr %6, i64 115
  %8 = load i8, ptr %7, align 1, !tbaa !42
  %9 = zext i8 %8 to i32
  %10 = icmp sgt i32 %5, %9
  br i1 %10, label %11, label %20

11:                                               ; preds = %2
  %12 = icmp samesign ugt i32 %5, 249
  br i1 %12, label %13, label %16

13:                                               ; preds = %11
  %14 = getelementptr inbounds nuw i8, ptr %0, i64 24
  %15 = load ptr, ptr %14, align 8, !tbaa !30
  tail call void @luaX_syntaxerror(ptr noundef %15, ptr noundef nonnull @.str) #8
  %.pre = load ptr, ptr %0, align 8, !tbaa !19
  br label %16

16:                                               ; preds = %13, %11
  %17 = phi ptr [ %.pre, %13 ], [ %6, %11 ]
  %18 = trunc i32 %5 to i8
  %19 = getelementptr inbounds nuw i8, ptr %17, i64 115
  store i8 %18, ptr %19, align 1, !tbaa !42
  br label %20

20:                                               ; preds = %16, %2
  ret void
}